; Function Attrs: mustprogress nounwind uwtable
define dso_local void @_ZN4llvm7remarks31BitstreamRemarkSerializerHelper21emitMetaRemarkVersionEm(ptr noundef nonnull align 8 dereferenceable(1808) %0, i64 noundef %1) local_unnamed_addr #0 align 2 {
  %3 = getelementptr inbounds nuw i8, ptr %0, i64 1048
  %4 = tail call noundef i64 @_ZNK4llvm15SmallVectorBaseIjE4sizeEv(ptr noundef nonnull align 8 dereferenceable(16) %3) #14
  %5 = getelementptr inbounds i8, ptr %0, i64 1056
  store i32 0, ptr %5, align 8
  %6 = tail call noundef i64 @_ZNK4llvm15SmallVectorBaseIjE4sizeEv(ptr noundef nonnull align 8 dereferenceable(16) %3) #14
  %7 = add i64 %6, 1
  %8 = tail call noundef i64 @_ZNK4llvm15SmallVectorBaseIjE8capacityEv(ptr noundef nonnull align 8 dereferenceable(16) %3) #14
  %.not.i.i.i = icmp ugt i64 %7, %8
  br i1 %.not.i.i.i, label %9, label %_ZN4llvm23SmallVectorTemplateBaseImLb1EE9push_backEm.exit

9:                                                ; preds = %2
  %10 = getelementptr inbounds i8, ptr %0, i64 1064
  tail call void @_ZN4llvm15SmallVectorBaseIjE8grow_podEPvmm(ptr noundef nonnull align 8 dereferenceable(16) %3, ptr noundef nonnull %10, i64 noundef %7, i64 noundef 8) #14
  br label %_ZN4llvm23SmallVectorTemplateBaseImLb1EE9push_backEm.exit

_ZN4llvm23SmallVectorTemplateBaseImLb1EE9push_backEm.exit: ; preds = %2, %9
  %11 = load ptr, ptr %3, align 8
  %12 = tail call noundef i64 @_ZNK4llvm15SmallVectorBaseIjE4sizeEv(ptr noundef nonnull align 8 dereferenceable(16) %3) #14
  %13 = getelementptr inbounds i64, ptr %11, i64 %12
  store i64 2, ptr %13, align 1
  %14 = tail call noundef i64 @_ZNK4llvm15SmallVectorBaseIjE4sizeEv(ptr noundef nonnull align 8 dereferenceable(16) %3) #14
  %15 = add i64 %14, 1
  tail call void @_ZN4llvm15SmallVectorBaseIjE8set_sizeEm(ptr noundef nonnull align 8 dereferenceable(16) %3, i64 noundef %15) #14
  %16 = tail call noundef i64 @_ZNK4llvm15SmallVectorBaseIjE4sizeEv(ptr noundef nonnull align 8 dereferenceable(16) %3) #14
  %17 = add i64 %16, 1
  %18 = tail call noundef i64 @_ZNK4llvm15SmallVectorBaseIjE8capacityEv(ptr noundef nonnull align 8 dereferenceable(16) %3) #14
  %.not.i.i.i1 = icmp ugt i64 %17, %18
  br i1 %.not.i.i.i1, label %19, label %_ZN4llvm23SmallVectorTemplateBaseImLb1EE9push_backEm.exit2

19:                                               ; preds = %_ZN4llvm23SmallVectorTemplateBaseImLb1EE9push_backEm.exit
  %20 = getelementptr inbounds i8, ptr %0, i64 1064
  tail call void @_ZN4llvm15SmallVectorBaseIjE8grow_podEPvmm(ptr noundef nonnull align 8 dereferenceable(16) %3, ptr noundef nonnull %20, i64 noundef %17, i64 noundef 8) #14
  br label %_ZN4llvm23SmallVectorTemplateBaseImLb1EE9push_backEm.exit2

_ZN4llvm23SmallVectorTemplateBaseImLb1EE9push_backEm.exit2: ; preds = %_ZN4llvm23SmallVectorTemplateBaseImLb1EE9push_backEm.exit, %19
  %21 = load ptr, ptr %3, align 8
  %22 = tail call noundef i64 @_ZNK4llvm15SmallVectorBaseIjE4sizeEv(ptr noundef nonnull align 8 dereferenceable(16) %3) #14
  %23 = getelementptr inbounds i64, ptr %21, i64 %22
  store i64 %1, ptr %23, align 1
  %24 = tail call noundef i64 @_ZNK4llvm15SmallVectorBaseIjE4sizeEv(ptr noundef nonnull align 8 dereferenceable(16) %3) #14
  %25 = add i64 %24, 1
  tail call void @_ZN4llvm15SmallVectorBaseIjE8set_sizeEm(ptr noundef nonnull align 8 dereferenceable(16) %3, i64 noundef %25) #14
  %26 = getelementptr inbounds nuw i8, ptr %0, i64 1576
  %27 = getelementptr inbounds nuw i8, ptr %0, i64 1744
  %28 = load i64, ptr %27, align 8
  %29 = trunc i64 %28 to i32
  %30 = load ptr, ptr %3, align 8
  %31 = tail call noundef i64 @_ZNK4llvm15SmallVectorBaseIjE4sizeEv(ptr noundef nonnull align 8 dereferenceable(16) %3) #14
  tail call void @_ZN4llvm15BitstreamWriter24EmitRecordWithAbbrevImplImEEvjNS_8ArrayRefIT_EENS_9StringRefESt8optionalIjE(ptr noundef nonnull align 8 dereferenceable(152) %26, i32 noundef %29, ptr %30, i64 %31, ptr null, i64 0, i64 0)
  ret void
}